; Function Attrs: nounwind uwtable
define dso_local ptr @PyModule_New(ptr noundef %0) local_unnamed_addr #0 {
  %2 = tail call ptr @PyUnicode_FromString(ptr noundef %0) #8
  %3 = icmp eq ptr %2, null
  br i1 %3, label %Py_DECREF.exit, label %4

4:                                                ; preds = %1
  %5 = tail call ptr @PyModule_NewObject(ptr noundef nonnull %2)
  %6 = load i32, ptr %2, align 8, !tbaa !22
  %.not.i = icmp sgt i32 %6, -1
  br i1 %.not.i, label %7, label %Py_DECREF.exit

7:                                                ; preds = %4
  %8 = add nsw i32 %6, -1
  store i32 %8, ptr %2, align 8, !tbaa !22
  %9 = icmp eq i32 %8, 0
  br i1 %9, label %10, label %Py_DECREF.exit

10:                                               ; preds = %7
  tail call void @_Py_Dealloc(ptr noundef nonnull %2) #8
  br label %Py_DECREF.exit

Py_DECREF.exit:                                   ; preds = %10, %7, %4, %1
  %.0 = phi ptr [ null, %1 ], [ %5, %4 ], [ %5, %7 ], [ %5, %10 ]
  ret ptr %.0
}